; Function Attrs: nofree norecurse nosync nounwind memory(readwrite, inaccessiblemem: none) uwtable
define hidden i32 @mbedtls_asn1_write_tagged_string(ptr noundef captures(none) %0, ptr noundef %1, i32 noundef %2, ptr noundef readonly captures(none) %3, i64 noundef %4) local_unnamed_addr #6 {
  %6 = load ptr, ptr %0, align 8, !tbaa !5
  %7 = icmp ult ptr %6, %1
  %8 = ptrtoint ptr %6 to i64
  %9 = ptrtoint ptr %1 to i64
  %10 = sub i64 %8, %9
  %11 = icmp ult i64 %10, %4
  %or.cond.i = or i1 %7, %11
  br i1 %or.cond.i, label %mbedtls_asn1_write_len_and_tag.exit, label %mbedtls_asn1_write_raw_buffer.exit

mbedtls_asn1_write_raw_buffer.exit:               ; preds = %5
  %12 = sub i64 0, %4
  %13 = getelementptr inbounds i8, ptr %6, i64 %12
  store ptr %13, ptr %0, align 8, !tbaa !5
  tail call void @llvm.memcpy.p0.p0.i64(ptr align 1 %13, ptr readonly align 1 %3, i64 %4, i1 false)
  %14 = trunc i64 %4 to i32
  %15 = icmp slt i32 %14, 0
  br i1 %15, label %mbedtls_asn1_write_len_and_tag.exit, label %16

16:                                               ; preds = %mbedtls_asn1_write_raw_buffer.exit
  %17 = and i64 %4, 2147483647
  %18 = trunc i32 %2 to i8
  %19 = icmp samesign ugt i64 %17, 127
  br i1 %19, label %.preheader23.i.i, label %.loopexit.i.i

.preheader23.i.i:                                 ; preds = %16, %.preheader23.i.i
  %.025.i.i = phi i64 [ %21, %.preheader23.i.i ], [ %17, %16 ]
  %.124.i.i = phi i32 [ %20, %.preheader23.i.i ], [ 1, %16 ]
  %20 = add nuw nsw i32 %.124.i.i, 1
  %21 = lshr i64 %.025.i.i, 8
  %.not.i.i = icmp samesign ult i64 %.025.i.i, 256
  br i1 %.not.i.i, label %.loopexit.i.i, label %.preheader23.i.i, !llvm.loop !3

.loopexit.i.i:                                    ; preds = %.preheader23.i.i, %16
  %.017.i.i = phi i32 [ 1, %16 ], [ %20, %.preheader23.i.i ]
  %22 = zext nneg i32 %.017.i.i to i64
  %23 = load ptr, ptr %0, align 8, !tbaa !5
  %24 = ptrtoint ptr %23 to i64
  %25 = sub i64 %24, %9
  %26 = icmp slt i64 %25, %22
  br i1 %26, label %mbedtls_asn1_write_len_and_tag.exit, label %.preheader.i.i

.preheader.i.i:                                   ; preds = %.loopexit.i.i, %.preheader.i.i
  %.018.i.i = phi i64 [ %30, %.preheader.i.i ], [ %17, %.loopexit.i.i ]
  %27 = trunc i64 %.018.i.i to i8
  %28 = load ptr, ptr %0, align 8, !tbaa !5
  %29 = getelementptr inbounds i8, ptr %28, i64 -1
  store ptr %29, ptr %0, align 8, !tbaa !5
  store i8 %27, ptr %29, align 1, !tbaa !10
  %30 = lshr i64 %.018.i.i, 8
  %.not22.i.i = icmp samesign ult i64 %.018.i.i, 256
  br i1 %.not22.i.i, label %31, label %.preheader.i.i, !llvm.loop !11

31:                                               ; preds = %.preheader.i.i
  %32 = icmp samesign ugt i32 %.017.i.i, 1
  br i1 %32, label %33, label %mbedtls_asn1_write_len.exit.i

33:                                               ; preds = %31
  %34 = trunc i32 %.017.i.i to i8
  %35 = add i8 %34, 127
  %36 = load ptr, ptr %0, align 8, !tbaa !5
  %37 = getelementptr inbounds i8, ptr %36, i64 -1
  store ptr %37, ptr %0, align 8, !tbaa !5
  store i8 %35, ptr %37, align 1, !tbaa !10
  br label %mbedtls_asn1_write_len.exit.i

mbedtls_asn1_write_len.exit.i:                    ; preds = %33, %31
  %38 = load ptr, ptr %0, align 8, !tbaa !5
  %39 = ptrtoint ptr %38 to i64
  %40 = sub i64 %39, %9
  %41 = icmp slt i64 %40, 1
  br i1 %41, label %mbedtls_asn1_write_len_and_tag.exit, label %42

42:                                               ; preds = %mbedtls_asn1_write_len.exit.i
  %43 = getelementptr inbounds i8, ptr %38, i64 -1
  store ptr %43, ptr %0, align 8, !tbaa !5
  store i8 %18, ptr %43, align 1, !tbaa !10
  %44 = add nuw i32 %14, 1
  %45 = add i32 %44, %.017.i.i
  br label %mbedtls_asn1_write_len_and_tag.exit

mbedtls_asn1_write_len_and_tag.exit:              ; preds = %5, %42, %mbedtls_asn1_write_len.exit.i, %.loopexit.i.i, %mbedtls_asn1_write_raw_buffer.exit
  %.0 = phi i32 [ %14, %mbedtls_asn1_write_raw_buffer.exit ], [ %45, %42 ], [ -108, %.loopexit.i.i ], [ -108, %mbedtls_asn1_write_len.exit.i ], [ -108, %5 ]
  ret i32 %.0
}